; Function Attrs: nounwind uwtable
define nonnull ptr @l_Lake_JobAction_ofNat___boxed(ptr noundef %0) local_unnamed_addr #1 {
  %2 = ptrtoint ptr %0 to i64
  %3 = and i64 %2, 1
  %.not.i3 = icmp eq i64 %3, 0
  br i1 %.not.i3, label %lean_nat_le.exit.i, label %4, !prof !15

4:                                                ; preds = %1
  %.not22.i = icmp ult ptr %0, inttoptr (i64 5 to ptr)
  br i1 %.not22.i, label %6, label %10

lean_nat_le.exit.i:                               ; preds = %1
  %5 = tail call zeroext i1 @lean_nat_big_le(ptr noundef nonnull inttoptr (i64 5 to ptr), ptr noundef %0) #8
  br i1 %5, label %.critedge.i16.i, label %.critedge.i14.i

6:                                                ; preds = %4
  %7 = icmp eq ptr %0, inttoptr (i64 1 to ptr)
  br label %lean_nat_eq.exit.i

.critedge.i14.i:                                  ; preds = %lean_nat_le.exit.i
  %8 = tail call zeroext i1 @lean_nat_big_eq(ptr noundef %0, ptr noundef nonnull inttoptr (i64 1 to ptr)) #8
  br label %lean_nat_eq.exit.i

lean_nat_eq.exit.i:                               ; preds = %.critedge.i14.i, %6
  %.0.i15.i = phi i1 [ %7, %6 ], [ %8, %.critedge.i14.i ]
  %9 = xor i1 %.0.i15.i, true
  %..i = zext i1 %9 to i64
  br label %l_Lake_JobAction_ofNat.exit

10:                                               ; preds = %4
  %11 = icmp eq ptr %0, inttoptr (i64 5 to ptr)
  br label %lean_nat_eq.exit18.i

.critedge.i16.i:                                  ; preds = %lean_nat_le.exit.i
  %12 = tail call zeroext i1 @lean_nat_big_eq(ptr noundef %0, ptr noundef nonnull inttoptr (i64 5 to ptr)) #8
  br label %lean_nat_eq.exit18.i

lean_nat_eq.exit18.i:                             ; preds = %.critedge.i16.i, %10
  %.0.i17.i = phi i1 [ %11, %10 ], [ %12, %.critedge.i16.i ]
  %.13.i = select i1 %.0.i17.i, i64 2, i64 3
  br label %l_Lake_JobAction_ofNat.exit

l_Lake_JobAction_ofNat.exit:                      ; preds = %lean_nat_eq.exit.i, %lean_nat_eq.exit18.i
  %.1.i = phi i64 [ %..i, %lean_nat_eq.exit.i ], [ %.13.i, %lean_nat_eq.exit18.i ]
  br i1 %.not.i3, label %13, label %lean_dec.exit

13:                                               ; preds = %l_Lake_JobAction_ofNat.exit
  %14 = load i32, ptr %0, align 4, !tbaa !4
  %15 = icmp sgt i32 %14, 1
  br i1 %15, label %16, label %18, !prof !9

16:                                               ; preds = %13
  %17 = add nsw i32 %14, -1
  store i32 %17, ptr %0, align 4, !tbaa !4
  br label %lean_dec.exit

18:                                               ; preds = %13
  %.not.i = icmp eq i32 %14, 0
  br i1 %.not.i, label %lean_dec.exit, label %19

19:                                               ; preds = %18
  tail call void @lean_dec_ref_cold(ptr noundef nonnull %0) #8
  br label %lean_dec.exit

lean_dec.exit:                                    ; preds = %19, %18, %16, %l_Lake_JobAction_ofNat.exit
  %20 = shl nuw nsw i64 %.1.i, 1
  %21 = or disjoint i64 %20, 1
  %22 = inttoptr i64 %21 to ptr
  ret ptr %22
}